target datalayout = "e-m:e-p270:32:32-p271:32:32-p272:64:64-i64:64-i128:128-f80:128-n8:16:32:64-S128"
target triple = "x86_64-pc-linux-gnu"

%class.Metadata = type { ptr }
%class.AccessFlags = type { i32 }
%class.GrowableArrayBase = type { i32, i32 }
%union.jvalue = type { i64 }
%class.jvmtiDeferredLocalVariableSet = type <{ ptr, i32, [4 x i8], ptr, i32, [4 x i8], ptr, i8, [7 x i8] }>
%class.GrowableArrayView.14 = type { %class.GrowableArrayBase, ptr }
%class.jvmtiDeferredLocalVariable = type <{ i8, [7 x i8], %union.jvalue, i32, [4 x i8] }>
%class.Method = type { %class.Metadata, ptr, ptr, ptr, ptr, %class.AccessFlags, i32, %class.MethodFlags, i16, %class.JfrTraceFlag, ptr, ptr, ptr, ptr }
%class.MethodFlags = type { i32 }
%class.JfrTraceFlag = type { i16 }
%class.ConstMethod = type <{ i64, ptr, ptr, i32, %class.ConstMethodFlags, i8, i8, i16, i16, i16, i16, i16, i16, i16, i16, i16, [4 x i8] }>
%class.ConstMethodFlags = type { i32 }

; Function Attrs: mustprogress nounwind uwtable
define linkonce_odr hidden noundef i32 @_ZN6Method19extra_stack_entriesEv() #1 comdat align 2 {
  ret i32 1
}

; Function Attrs: mustprogress nounwind uwtable
define linkonce_odr hidden noundef zeroext i16 @_ZNK11ConstMethod9max_stackEv(ptr noundef nonnull align 8 dereferenceable(52) %0) #1 comdat align 2 {
  %2 = alloca ptr, align 8
  store ptr %0, ptr %2, align 8
  %3 = load ptr, ptr %2, align 8
  %4 = getelementptr inbounds %class.ConstMethod, ptr %3, i32 0, i32 11
  %5 = load i16, ptr %4, align 2
  ret i16 %5
}

; Function Attrs: mustprogress nounwind uwtable
define linkonce_odr hidden noundef zeroext i16 @_ZNK11ConstMethod10max_localsEv(ptr noundef nonnull align 8 dereferenceable(52) %0) #1 comdat align 2 {
  %2 = alloca ptr, align 8
  store ptr %0, ptr %2, align 8
  %3 = load ptr, ptr %2, align 8
  %4 = getelementptr inbounds %class.ConstMethod, ptr %3, i32 0, i32 12
  %5 = load i16, ptr %4, align 4
  ret i16 %5
}

; Function Attrs: mustprogress nounwind uwtable
define linkonce_odr hidden noundef ptr @_ZNK6Method11constMethodEv(ptr noundef nonnull align 8 dereferenceable(88) %0) #1 comdat align 2 {
  %2 = alloca ptr, align 8
  store ptr %0, ptr %2, align 8
  %3 = load ptr, ptr %2, align 8
  %4 = getelementptr inbounds %class.Method, ptr %3, i32 0, i32 1
  %5 = load ptr, ptr %4, align 8
  ret ptr %5
}

; Function Attrs: mustprogress nounwind uwtable
define linkonce_odr hidden i64 @_ZN26jvmtiDeferredLocalVariable5valueEv(ptr noundef nonnull align 8 dereferenceable(20) %0) #1 comdat align 2 {
  %2 = alloca %union.jvalue, align 8
  %3 = alloca ptr, align 8
  store ptr %0, ptr %3, align 8
  %4 = load ptr, ptr %3, align 8
  %5 = getelementptr inbounds %class.jvmtiDeferredLocalVariable, ptr %4, i32 0, i32 2
  call void @llvm.memcpy.p0.p0.i64(ptr align 8 %2, ptr align 8 %5, i64 8, i1 false)
  %6 = getelementptr inbounds %union.jvalue, ptr %2, i32 0, i32 0
  %7 = load i64, ptr %6, align 8
  ret i64 %7
}

; Function Attrs: mustprogress nounwind uwtable
define linkonce_odr hidden noundef zeroext i8 @_ZN26jvmtiDeferredLocalVariable4typeEv(ptr noundef nonnull align 8 dereferenceable(20) %0) #1 comdat align 2 {
  %2 = alloca ptr, align 8
  store ptr %0, ptr %2, align 8
  %3 = load ptr, ptr %2, align 8
  %4 = getelementptr inbounds %class.jvmtiDeferredLocalVariable, ptr %3, i32 0, i32 0
  %5 = load i8, ptr %4, align 8
  ret i8 %5
}

; Function Attrs: mustprogress nounwind uwtable
define linkonce_odr hidden noundef i32 @_ZNK6Method9max_stackEv(ptr noundef nonnull align 8 dereferenceable(88) %0) #1 comdat align 2 {
  %2 = alloca ptr, align 8
  store ptr %0, ptr %2, align 8
  %3 = load ptr, ptr %2, align 8
  %4 = call noundef ptr @_ZNK6Method11constMethodEv(ptr noundef nonnull align 8 dereferenceable(88) %3)
  %5 = call noundef zeroext i16 @_ZNK11ConstMethod9max_stackEv(ptr noundef nonnull align 8 dereferenceable(52) %4)
  %6 = zext i16 %5 to i32
  %7 = call noundef i32 @_ZN6Method19extra_stack_entriesEv()
  %8 = add nsw i32 %6, %7
  ret i32 %8
}

; Function Attrs: mustprogress nounwind uwtable
define linkonce_odr hidden noundef zeroext i16 @_ZNK6Method10max_localsEv(ptr noundef nonnull align 8 dereferenceable(88) %0) #1 comdat align 2 {
  %2 = alloca ptr, align 8
  store ptr %0, ptr %2, align 8
  %3 = load ptr, ptr %2, align 8
  %4 = call noundef ptr @_ZNK6Method11constMethodEv(ptr noundef nonnull align 8 dereferenceable(88) %3)
  %5 = call noundef zeroext i16 @_ZNK11ConstMethod10max_localsEv(ptr noundef nonnull align 8 dereferenceable(52) %4)
  ret i16 %5
}

; Function Attrs: mustprogress nounwind uwtable
define linkonce_odr hidden noundef ptr @_ZNK29jvmtiDeferredLocalVariableSet6methodEv(ptr noundef nonnull align 8 dereferenceable(41) %0) #1 comdat align 2 {
  %2 = alloca ptr, align 8
  store ptr %0, ptr %2, align 8
  %3 = load ptr, ptr %2, align 8
  %4 = getelementptr inbounds %class.jvmtiDeferredLocalVariableSet, ptr %3, i32 0, i32 0
  %5 = load ptr, ptr %4, align 8
  ret ptr %5
}

; Function Attrs: mustprogress nounwind uwtable
define linkonce_odr hidden noundef i32 @_ZN26jvmtiDeferredLocalVariable5indexEv(ptr noundef nonnull align 8 dereferenceable(20) %0) #1 comdat align 2 {
  %2 = alloca ptr, align 8
  store ptr %0, ptr %2, align 8
  %3 = load ptr, ptr %2, align 8
  %4 = getelementptr inbounds %class.jvmtiDeferredLocalVariable, ptr %3, i32 0, i32 3
  %5 = load i32, ptr %4, align 8
  ret i32 %5
}

; Function Attrs: mustprogress nounwind uwtable
define linkonce_odr hidden noundef nonnull align 8 dereferenceable(8) ptr @_ZN17GrowableArrayViewIP26jvmtiDeferredLocalVariableE2atEi(ptr noundef nonnull align 8 dereferenceable(16) %0, i32 noundef %1) #1 comdat align 2 {
  %3 = alloca ptr, align 8
  %4 = alloca i32, align 4
  store ptr %0, ptr %3, align 8
  store i32 %1, ptr %4, align 4
  %5 = load ptr, ptr %3, align 8
  %6 = getelementptr inbounds %class.GrowableArrayView.14, ptr %5, i32 0, i32 1
  %7 = load ptr, ptr %6, align 8
  %8 = load i32, ptr %4, align 4
  %9 = sext i32 %8 to i64
  %10 = getelementptr inbounds ptr, ptr %7, i64 %9
  ret ptr %10
}

; Function Attrs: mustprogress nounwind uwtable
define linkonce_odr hidden noundef i32 @_ZNK17GrowableArrayBase6lengthEv(ptr noundef nonnull align 4 dereferenceable(8) %0) #1 comdat align 2 {
  %2 = alloca ptr, align 8
  store ptr %0, ptr %2, align 8
  %3 = load ptr, ptr %2, align 8
  %4 = getelementptr inbounds %class.GrowableArrayBase, ptr %3, i32 0, i32 0
  %5 = load i32, ptr %4, align 4
  ret i32 %5
}

; Function Attrs: mustprogress nounwind uwtable
define hidden void @_ZN29jvmtiDeferredLocalVariableSet12update_stackEP20StackValueCollection(ptr noundef nonnull align 8 dereferenceable(41) %0, ptr noundef %1) #1 align 2 {
  %3 = alloca ptr, align 8
  %4 = alloca ptr, align 8
  %5 = alloca i32, align 4
  %6 = alloca ptr, align 8
  %7 = alloca %union.jvalue, align 8
  store ptr %0, ptr %3, align 8
  store ptr %1, ptr %4, align 8
  %8 = load ptr, ptr %3, align 8
  store i32 0, ptr %5, align 4
  br label %9

9:                                                ; preds = %53, %2
  %10 = load i32, ptr %5, align 4
  %11 = getelementptr inbounds %class.jvmtiDeferredLocalVariableSet, ptr %8, i32 0, i32 6
  %12 = load ptr, ptr %11, align 8
  %13 = call noundef i32 @_ZNK17GrowableArrayBase6lengthEv(ptr noundef nonnull align 4 dereferenceable(8) %12)
  %14 = icmp slt i32 %10, %13
  br i1 %14, label %15, label %56

15:                                               ; preds = %9
  %16 = getelementptr inbounds %class.jvmtiDeferredLocalVariableSet, ptr %8, i32 0, i32 6
  %17 = load ptr, ptr %16, align 8
  %18 = load i32, ptr %5, align 4
  %19 = call noundef nonnull align 8 dereferenceable(8) ptr @_ZN17GrowableArrayViewIP26jvmtiDeferredLocalVariableE2atEi(ptr noundef nonnull align 8 dereferenceable(16) %17, i32 noundef %18)
  %20 = load ptr, ptr %19, align 8
  store ptr %20, ptr %6, align 8
  %21 = load ptr, ptr %6, align 8
  %22 = call noundef i32 @_ZN26jvmtiDeferredLocalVariable5indexEv(ptr noundef nonnull align 8 dereferenceable(20) %21)
  %23 = call noundef ptr @_ZNK29jvmtiDeferredLocalVariableSet6methodEv(ptr noundef nonnull align 8 dereferenceable(41) %8)
  %24 = call noundef zeroext i16 @_ZNK6Method10max_localsEv(ptr noundef nonnull align 8 dereferenceable(88) %23)
  %25 = zext i16 %24 to i32
  %26 = icmp sge i32 %22, %25
  br i1 %26, label %27, label %52

27:                                               ; preds = %15
  %28 = load ptr, ptr %6, align 8
  %29 = call noundef i32 @_ZN26jvmtiDeferredLocalVariable5indexEv(ptr noundef nonnull align 8 dereferenceable(20) %28)
  %30 = call noundef ptr @_ZNK29jvmtiDeferredLocalVariableSet6methodEv(ptr noundef nonnull align 8 dereferenceable(41) %8)
  %31 = call noundef zeroext i16 @_ZNK6Method10max_localsEv(ptr noundef nonnull align 8 dereferenceable(88) %30)
  %32 = zext i16 %31 to i32
  %33 = call noundef ptr @_ZNK29jvmtiDeferredLocalVariableSet6methodEv(ptr noundef nonnull align 8 dereferenceable(41) %8)
  %34 = call noundef i32 @_ZNK6Method9max_stackEv(ptr noundef nonnull align 8 dereferenceable(88) %33)
  %35 = add nsw i32 %32, %34
  %36 = icmp slt i32 %29, %35
  br i1 %36, label %37, label %52

37:                                               ; preds = %27
  %38 = load ptr, ptr %4, align 8
  %39 = load ptr, ptr %6, align 8
  %40 = call noundef zeroext i8 @_ZN26jvmtiDeferredLocalVariable4typeEv(ptr noundef nonnull align 8 dereferenceable(20) %39)
  %41 = load ptr, ptr %6, align 8
  %42 = call noundef i32 @_ZN26jvmtiDeferredLocalVariable5indexEv(ptr noundef nonnull align 8 dereferenceable(20) %41)
  %43 = call noundef ptr @_ZNK29jvmtiDeferredLocalVariableSet6methodEv(ptr noundef nonnull align 8 dereferenceable(41) %8)
  %44 = call noundef zeroext i16 @_ZNK6Method10max_localsEv(ptr noundef nonnull align 8 dereferenceable(88) %43)
  %45 = zext i16 %44 to i32
  %46 = sub nsw i32 %42, %45
  %47 = load ptr, ptr %6, align 8
  %48 = call i64 @_ZN26jvmtiDeferredLocalVariable5valueEv(ptr noundef nonnull align 8 dereferenceable(20) %47)
  %49 = getelementptr inbounds %union.jvalue, ptr %7, i32 0, i32 0
  store i64 %48, ptr %49, align 8
  %50 = getelementptr inbounds %union.jvalue, ptr %7, i32 0, i32 0
  %51 = load i64, ptr %50, align 8
  call void @_ZN29jvmtiDeferredLocalVariableSet12update_valueEP20StackValueCollection9BasicTypei6jvalue(ptr noundef nonnull align 8 dereferenceable(41) %8, ptr noundef %38, i8 noundef zeroext %40, i32 noundef %46, i64 %51)
  br label %52

52:                                               ; preds = %37, %27, %15
  br label %53

53:                                               ; preds = %52
  %54 = load i32, ptr %5, align 4
  %55 = add nsw i32 %54, 1
  store i32 %55, ptr %5, align 4
  br label %9, !llvm.loop !17

56:                                               ; preds = %9
  ret void
}