; Function Attrs: mustprogress nounwind uwtable
define hidden void @_ZN29jvmtiDeferredLocalVariableSet12update_stackEP20StackValueCollection(ptr nocapture noundef nonnull readonly align 8 dereferenceable(41) %0, ptr noundef %1) local_unnamed_addr #0 align 2 {
  %3 = getelementptr inbounds i8, ptr %0, i64 32
  %4 = load ptr, ptr %3, align 8
  %5 = load i32, ptr %4, align 4
  %6 = icmp sgt i32 %5, 0
  br i1 %6, label %.lr.ph, label %._crit_edge

.lr.ph:                                           ; preds = %2, %32
  %7 = phi i32 [ %33, %32 ], [ %5, %2 ]
  %8 = phi ptr [ %34, %32 ], [ %4, %2 ]
  %indvars.iv = phi i64 [ %indvars.iv.next, %32 ], [ 0, %2 ]
  %9 = getelementptr inbounds i8, ptr %8, i64 8
  %10 = load ptr, ptr %9, align 8
  %11 = getelementptr inbounds ptr, ptr %10, i64 %indvars.iv
  %12 = load ptr, ptr %11, align 8
  %13 = getelementptr inbounds i8, ptr %12, i64 16
  %14 = load i32, ptr %13, align 8
  %15 = load ptr, ptr %0, align 8
  %16 = getelementptr inbounds i8, ptr %15, i64 8
  %17 = load ptr, ptr %16, align 8
  %18 = getelementptr inbounds i8, ptr %17, i64 44
  %19 = load i16, ptr %18, align 4
  %20 = zext i16 %19 to i32
  %.not = icmp slt i32 %14, %20
  br i1 %.not, label %32, label %21

21:                                               ; preds = %.lr.ph
  %22 = getelementptr inbounds i8, ptr %17, i64 42
  %23 = load i16, ptr %22, align 2
  %24 = zext i16 %23 to i32
  %25 = add nuw nsw i32 %20, 1
  %26 = add nuw nsw i32 %25, %24
  %27 = icmp ult i32 %14, %26
  br i1 %27, label %28, label %32

28:                                               ; preds = %21
  %29 = load i8, ptr %12, align 8
  %30 = sub nsw i32 %14, %20
  %31 = getelementptr inbounds i8, ptr %12, i64 8
  %.sroa.0.0.copyload.i = load i64, ptr %31, align 8
  tail call void @_ZN29jvmtiDeferredLocalVariableSet12update_valueEP20StackValueCollection9BasicTypei6jvalue(ptr nonnull align 8 poison, ptr noundef %1, i8 noundef zeroext %29, i32 noundef %30, i64 %.sroa.0.0.copyload.i)
  %.pre = load ptr, ptr %3, align 8
  %.pre11 = load i32, ptr %.pre, align 4
  br label %32

32:                                               ; preds = %.lr.ph, %21, %28
  %33 = phi i32 [ %7, %.lr.ph ], [ %7, %21 ], [ %.pre11, %28 ]
  %34 = phi ptr [ %8, %.lr.ph ], [ %8, %21 ], [ %.pre, %28 ]
  %indvars.iv.next = add nuw nsw i64 %indvars.iv, 1
  %35 = sext i32 %33 to i64
  %36 = icmp slt i64 %indvars.iv.next, %35
  br i1 %36, label %.lr.ph, label %._crit_edge, !llvm.loop !16

._crit_edge:                                      ; preds = %32, %2
  ret void
}